; Function Attrs: nofree norecurse nosync nounwind memory(readwrite, inaccessiblemem: none) uwtable
define void @Gia_ManSetPhasePattern(ptr noundef readonly captures(none) %0, ptr noundef readonly captures(none) %1) local_unnamed_addr #1 {
  %3 = getelementptr i8, ptr %0, i64 32
  %4 = getelementptr inbounds nuw i8, ptr %0, i64 24
  %5 = load i32, ptr %4, align 8
  %6 = icmp sgt i32 %5, 0
  br i1 %6, label %.lr.ph, label %.critedge

.lr.ph:                                           ; preds = %2
  %7 = getelementptr i8, ptr %1, i64 8
  br label %8

8:                                                ; preds = %.lr.ph, %23
  %indvars.iv = phi i64 [ 0, %.lr.ph ], [ %indvars.iv.next, %23 ]
  %.val = load ptr, ptr %3, align 8
  %9 = getelementptr inbounds nuw %struct.Gia_Obj_t_, ptr %.val, i64 %indvars.iv
  %.not = icmp eq ptr %.val, null
  br i1 %.not, label %.critedge, label %10

10:                                               ; preds = %8
  %.val12 = load i64, ptr %9, align 4
  %11 = and i64 %.val12, 2684354559
  %narrow.i.not = icmp eq i64 %11, 2684354559
  br i1 %narrow.i.not, label %12, label %22

12:                                               ; preds = %10
  %13 = lshr i64 %.val12, 32
  %14 = and i64 %13, 536870911
  %.val14 = load ptr, ptr %7, align 8
  %15 = getelementptr inbounds nuw i32, ptr %.val14, i64 %14
  %16 = load i32, ptr %15, align 4
  %17 = and i32 %16, 1
  %18 = zext nneg i32 %17 to i64
  %19 = shl nuw i64 %18, 63
  %20 = and i64 %.val12, 9223372036854775807
  %21 = or disjoint i64 %19, %20
  store i64 %21, ptr %9, align 4
  br label %23

22:                                               ; preds = %10
  tail call void @Gia_ObjSetPhase(ptr noundef nonnull %0, ptr noundef nonnull %9)
  br label %23

23:                                               ; preds = %12, %22
  %indvars.iv.next = add nuw nsw i64 %indvars.iv, 1
  %24 = load i32, ptr %4, align 8
  %25 = sext i32 %24 to i64
  %26 = icmp slt i64 %indvars.iv.next, %25
  br i1 %26, label %8, label %.critedge, !llvm.loop !16

.critedge:                                        ; preds = %8, %23, %2
  ret void
}